; Function Attrs: mustprogress nofree norecurse nosync nounwind willreturn memory(read, argmem: readwrite, inaccessiblemem: none) uwtable
define noundef i64 @_ZN7RawRead4Get8Ev(ptr noundef nonnull align 8 captures(none) dereferenceable(64) %0) local_unnamed_addr #4 align 2 {
  %2 = getelementptr inbounds nuw i8, ptr %0, i64 48
  %3 = load i64, ptr %2, align 8, !tbaa !21
  %4 = add i64 %3, 3
  %5 = getelementptr inbounds nuw i8, ptr %0, i64 40
  %6 = load i64, ptr %5, align 8, !tbaa !15
  %7 = icmp ult i64 %4, %6
  br i1 %7, label %8, label %_ZN7RawRead4Get4Ev.exit

8:                                                ; preds = %1
  %9 = load ptr, ptr %0, align 8, !tbaa !17
  %10 = getelementptr i8, ptr %9, i64 %3
  %11 = load i16, ptr %10, align 1
  %12 = zext i16 %11 to i64
  %13 = getelementptr i8, ptr %10, i64 2
  %14 = load i8, ptr %13, align 1, !tbaa !22
  %15 = zext i8 %14 to i64
  %16 = shl nuw nsw i64 %15, 16
  %17 = or disjoint i64 %16, %12
  %18 = getelementptr inbounds nuw i8, ptr %9, i64 %4
  %19 = load i8, ptr %18, align 1, !tbaa !22
  %20 = zext i8 %19 to i64
  %21 = shl nuw nsw i64 %20, 24
  %22 = or disjoint i64 %17, %21
  %23 = add i64 %3, 4
  store i64 %23, ptr %2, align 8, !tbaa !21
  %.pre = add i64 %3, 7
  br label %_ZN7RawRead4Get4Ev.exit

_ZN7RawRead4Get4Ev.exit:                          ; preds = %1, %8
  %.pre-phi = phi i64 [ %4, %1 ], [ %.pre, %8 ]
  %24 = phi i64 [ %3, %1 ], [ %23, %8 ]
  %.0.i = phi i64 [ 0, %1 ], [ %22, %8 ]
  %25 = icmp ult i64 %.pre-phi, %6
  br i1 %25, label %26, label %_ZN7RawRead4Get4Ev.exit3

26:                                               ; preds = %_ZN7RawRead4Get4Ev.exit
  %27 = load ptr, ptr %0, align 8, !tbaa !17
  %28 = getelementptr i8, ptr %27, i64 %24
  %29 = load i16, ptr %28, align 1
  %30 = zext i16 %29 to i64
  %31 = shl nuw nsw i64 %30, 32
  %32 = getelementptr i8, ptr %28, i64 2
  %33 = load i8, ptr %32, align 1, !tbaa !22
  %34 = zext i8 %33 to i64
  %35 = getelementptr inbounds nuw i8, ptr %27, i64 %.pre-phi
  %36 = load i8, ptr %35, align 1, !tbaa !22
  %37 = zext i8 %36 to i64
  %38 = add i64 %24, 4
  store i64 %38, ptr %2, align 8, !tbaa !21
  %39 = shl nuw i64 %37, 56
  %40 = shl nuw nsw i64 %34, 48
  %41 = or disjoint i64 %40, %31
  %42 = or disjoint i64 %41, %39
  br label %_ZN7RawRead4Get4Ev.exit3

_ZN7RawRead4Get4Ev.exit3:                         ; preds = %_ZN7RawRead4Get4Ev.exit, %26
  %.0.i2 = phi i64 [ %42, %26 ], [ 0, %_ZN7RawRead4Get4Ev.exit ]
  %43 = or disjoint i64 %.0.i2, %.0.i
  ret i64 %43
}